(dp0
V92, 163, 179
p1
V2219 C
p2
sV21, 71, 52
p3
V3435 C
p4
sV44, 86, 151
p5
V7685 C
p6
sV236, 134, 208
p7
V237 C
p8
sV37, 55, 70
p9
V7546 C
p10
sV44, 213, 196
p11
V3255 C
p12
sV78, 135, 160
p13
V7697 C
p14
sV140, 119, 50
p15
V4495 C
p16
sV162, 120, 156
p17
V7654 C
p18
sV207, 176, 35
p19
V7752 C
p20
sV210, 91, 115
p21
V702 C
p22
sV0, 135, 62
p23
V2418 C
p24
sV254, 209, 65
p25
V122 C
p26
sV0, 59, 73
p27
V309 C
p28
sV124, 105, 146
p29
V667 C
p30
sV111, 123, 212
p31
V2124 C
p32
sV93, 121, 117
p33
V5487 C
p34
sV83, 84, 53
p35
V7764 C
p36
sV145, 147, 136
p37
V415 C
p38
sV52, 53, 121
p39
V2118 C
p40
sV133, 113, 77
p41
V872 C
p42
sV241, 190, 72
p43
V142 C
p44
sV0, 118, 207
p45
V2195 C
p46
sV0, 118, 206
p47
V2174 C
p48
sV224, 62, 82
p49
V710 C
p50
sV244, 54, 76
p51
V1787 C
p52
sV249, 181, 196
p53
V707 C
p54
sV224, 60, 49
p55
V179 C
p56
sV151, 140, 135
p57
V408 C
p58
sV158, 167, 0
p59
V2305 C
p60
sV192, 81, 49
p61
V7580 C
p62
sV61, 57, 53
p63
VBlack 7 C
p64
sV208, 190, 199
p65
V5235 C
p66
sV252, 76, 2
p67
V1655 C
p68
sV143, 153, 62
p69
V7495 C
p70
sV57, 32, 124
p71
V2105 C
p72
sV242, 240, 161
p73
VYellow 0131 C
p74
sV147, 109, 115
p75
V7639 C
p76
sV120, 103, 72
p77
V2328 C
p78
sV184, 204, 234
p79
V2708 C
p80
sV166, 9, 61
p81
V1945 C
p82
sV46, 0, 139
p83
V2735 C
p84
sV174, 37, 115
p85
V675 C
p86
sV173, 26, 172
p87
V253 C
p88
sV130, 122, 4
p89
V392 C
p90
sV198, 214, 227
p91
V643 C
p92
sV97, 75, 121
p93
V668 C
p94
sV107, 164, 184
p95
V549 C
p96
sV78, 91, 115
p97
V2376 C
p98
sV3, 95, 29
p99
V2427 C
p100
sV139, 99, 75
p101
V876 C
p102
sV131, 0, 101
p103
V2425 C
p104
sV49, 84, 112
p105
V2377 C
p106
sV123, 175, 212
p107
V542 C
p108
sV209, 144, 0
p109
V7550 C
p110
sV82, 71, 39
p111
V449 C
p112
sV130, 153, 149
p113
V5497 C
p114
sV113, 97, 53
p115
V7769 C
p116
sV253, 190, 135
p117
V713 C
p118
sV137, 134, 202
p119
V7446 C
p120
sV146, 78, 140
p121
V2354 C
p122
sV99, 81, 61
p123
V7532 C
p124
sV160, 209, 202
p125
V7464 C
p126
sV155, 148, 95
p127
V451 C
p128
sV137, 12, 88
p129
V228 C
p130
sV187, 41, 187
p131
VPurple C
p132
sV71, 215, 172
p133
V3385 C
p134
sV170, 128, 102
p135
V479 C
p136
sV170, 0, 97
p137
V227 C
p138
sV139, 111, 78
p139
V874 C
p140
sV231, 206, 181
p141
V2309 C
p142
sV0, 95, 134
p143
V7469 C
p144
sV0, 95, 131
p145
V634 C
p146
sV253, 215, 87
p147
V121 C
p148
sV173, 100, 51
p149
V7566 C
p150
sV89, 203, 232
p151
V305 C
p152
sV176, 189, 176
p153
V5655 C
p154
sV255, 173, 0
p155
V2010 C
p156
sV153, 155, 48
p157
V7746 C
p158
sV184, 123, 161
p159
V2059 C
p160
sV239, 96, 121
p161
V709 C
p162
sV210, 38, 48
p163
V1795 C
p164
sV161, 216, 132
p165
V359 C
p166
sV253, 170, 99
p167
V714 C
p168
sV0, 175, 102
p169
V3405 C
p170
sV214, 37, 152
p171
VPink C
p172
sV70, 78, 126
p173
V2111 C
p174
sV235, 111, 189
p175
V224 C
p176
sV150, 94, 200
p177
V2083 C
p178
sV153, 30, 102
p179
V7648 C
p180
sV36, 158, 107
p181
V2417 C
p182
sV112, 115, 114
p183
V424 C
p184
sV165, 0, 80
p185
V220 C
p186
sV234, 196, 210
p187
V2043 C
p188
sV64, 193, 172
p189
V7465 C
p190
sV156, 219, 217
p191
V324 C
p192
sV106, 52, 96
p193
V7658 C
p194
sV241, 178, 220
p195
VMagenta 0521 C
p196
sV173, 164, 174
p197
V2358 C
p198
sV145, 214, 172
p199
V345 C
p200
sV246, 141, 46
p201
V715 C
p202
sV0, 175, 215
p203
V638 C
p204
sV78, 118, 156
p205
V2159 C
p206
sV143, 172, 217
p207
V2121 C
p208
sV225, 224, 0
p209
V396 C
p210
sV160, 146, 0
p211
V399 C
p212
sV99, 153, 174
p213
V7696 C
p214
sV143, 226, 176
p215
V352 C
p216
sV238, 39, 55
p217
V1788 C
p218
sV0, 163, 118
p219
V2242 C
p220
sV74, 37, 170
p221
V2098 C
p222
sV219, 205, 211
p223
V5245 C
p224
sV0, 102, 79
p225
V336 C
p226
sV173, 83, 137
p227
V2061 C
p228
sV217, 234, 154
p229
V2281 C
p230
sV0, 181, 226
p231
V306 C
p232
sV204, 138, 0
p233
V131 C
p234
sV97, 44, 81
p235
V511 C
p236
sV243, 221, 109
p237
V127 C
p238
sV40, 114, 79
p239
V555 C
p240
sV26, 101, 143
p241
V2152 C
p242
sV191, 155, 222
p243
VViolet 0631 C
p244
sV0, 105, 177
p245
V2196 C
p246
sV215, 198, 230
p247
V263 C
p248
sV119, 66, 18
p249
V731 C
p250
sV134, 89, 181
p251
V2076 C
p252
sV7, 39, 45
p253
V5463 C
p254
sV0, 176, 151
p255
V2400 C
p256
sV182, 184, 220
p257
V7444 C
p258
sV72, 213, 151
p259
V2412 C
p260
sV80, 109, 133
p261
V2167 C
p262
sV192, 156, 131
p263
V7521 C
p264
sV183, 191, 16
p265
V583 C
p266
sV189, 233, 201
p267
V2253 C
p268
sV193, 198, 200
p269
V428 C
p270
sV124, 128, 52
p271
V7748 C
p272
sV91, 197, 0
p273
V2287 C
p274
sV114, 115, 55
p275
V7749 C
p276
sV0, 115, 150
p277
V633 C
p278
sV0, 115, 152
p279
V7468 C
p280
sV81, 45, 109
p281
V269 C
p282
sV38, 208, 124
p283
V7479 C
p284
sV0, 94, 93
p285
V7721 C
p286
sV95, 141, 218
p287
V2129 C
p288
sV46, 26, 71
p289
V2695 C
p290
sV138, 141, 74
p291
V5767 C
p292
sV197, 139, 104
p293
V7515 C
p294
sV255, 233, 0
p295
V803 C
p296
sV249, 229, 71
p297
V106 C
p298
sV254, 80, 0
p299
VOrange 021 C
p300
sV16, 24, 32
p301
VBlack 6 C
p302
sV142, 44, 72
p303
V7641 C
p304
sV0, 30, 96
p305
V2757 C
p306
sV112, 39, 61
p307
V2042 C
p308
sV157, 67, 44
p309
V7593 C
p310
sV132, 52, 78
p311
V506 C
p312
sV0, 30, 98
p313
V2758 C
p314
sV96, 104, 178
p315
V2116 C
p316
sV4, 169, 199
p317
V2200 C
p318
sV92, 136, 218
p319
V2718 C
p320
sV78, 128, 31
p321
V2278 C
p322
sV68, 105, 61
p323
V7743 C
p324
sV0, 155, 119
p325
V3278 C
p326
sV181, 189, 0
p327
V390 C
p328
sV33, 35, 34
p329
V419 C
p330
sV107, 149, 96
p331
V2264 C
p332
sV221, 156, 223
p333
V251 C
p334
sV77, 95, 128
p335
V2374 C
p336
sV169, 194, 63
p337
V2300 C
p338
sV166, 85, 35
p339
V1605 C
p340
sV197, 70, 68
p341
V2033 C
p342
sV195, 147, 103
p343
V2313 C
p344
sV240, 148, 145
p345
V2339 C
p346
sV243, 207, 179
p347
V475 C
p348
sV181, 227, 216
p349
V573 C
p350
sV186, 156, 197
p351
V522 C
p352
sV242, 169, 0
p353
V130 C
p354
sV5, 134, 142
p355
V2237 C
p356
sV153, 145, 164
p357
V7660 C
p358
sV210, 215, 85
p359
V584 C
p360
sV229, 155, 220
p361
V244 C
p362
sV203, 44, 48
p363
V711 C
p364
sV155, 34, 66
p365
V7420 C
p366
sV154, 149, 0
p367
V391 C
p368
sV127, 169, 174
p369
V5493 C
p370
sV184, 58, 75
p371
V703 C
p372
sV216, 200, 209
p373
V5175 C
p374
sV196, 132, 144
p375
V694 C
p376
sV144, 153, 186
p377
V2107 C
p378
sV242, 119, 198
p379
V231 C
p380
sV123, 73, 49
p381
V7602 C
p382
sV189, 197, 219
p383
V7450 C
p384
sV48, 127, 226
p385
V2727 C
p386
sV157, 231, 215
p387
VGreen 0921 C
p388
sV0, 157, 133
p389
V2402 C
p390
sV235, 188, 78
p391
V2006 C
p392
sV114, 0, 98
p393
V2356 C
p394
sV135, 24, 157
p395
V2602 C
p396
sV108, 172, 228
p397
V284 C
p398
sV198, 137, 63
p399
V7510 C
p400
sV147, 64, 84
p401
V7640 C
p402
sV93, 42, 44
p403
V490 C
p404
sV143, 214, 189
p405
V337 C
p406
sV0, 87, 118
p407
V7701 C
p408
sV248, 193, 184
p409
V2337 C
p410
sV221, 218, 232
p411
V7443 C
p412
sV233, 223, 151
p413
V461 C
p414
sV252, 210, 153
p415
V7507 C
p416
sV60, 219, 192
p417
V333 C
p418
sV201, 150, 182
p419
V680 C
p420
sV187, 188, 188
p421
VCool Gray 4 C
p422
sV0, 207, 180
p423
V2239 C
p424
sV106, 44, 62
p425
V7428 C
p426
sV0, 132, 61
p427
V348 C
p428
sV238, 220, 0
p429
V3965 C
p430
sV100, 38, 103
p431
V260 C
p432
sV119, 81, 53
p433
V7568 C
p434
sV32, 23, 71
p435
V275 C
p436
sV0, 51, 73
p437
V2189 C
p438
sV107, 165, 57
p439
V7737 C
p440
sV221, 121, 117
p441
V2030 C
p442
sV198, 176, 188
p443
V5225 C
p444
sV130, 59, 52
p445
V7609 C
p446
sV0, 164, 153
p447
V3272 C
p448
sV236, 216, 152
p449
V7402 C
p450
sV0, 193, 159
p451
V2240 C
p452
sV0, 76, 69
p453
V3302 C
p454
sV96, 61, 32
p455
V161 C
p456
sV0, 133, 155
p457
V7712 C
p458
sV196, 191, 182
p459
V400 C
p460
sV158, 181, 203
p461
V2155 C
p462
sV84, 97, 200
p463
V2125 C
p464
sV34, 34, 35
p465
VNeutral Black C
p466
sV42, 210, 201
p467
V3252 C
p468
sV161, 214, 202
p469
V565 C
p470
sV138, 117, 209
p471
V2101 C
p472
sV194, 110, 96
p473
V7607 C
p474
sV213, 57, 181
p475
V2385 C
p476
sV184, 150, 212
p477
V2072 C
p478
sV148, 169, 203
p479
V7681 C
p480
sV182, 173, 165
p481
VWarm Gray 4 C
p482
sV137, 144, 100
p483
V5773 C
p484
sV134, 100, 122
p485
V5205 C
p486
sV163, 170, 131
p487
V5783 C
p488
sV243, 229, 0
p489
V3945 C
p490
sV202, 182, 75
p491
V7751 C
p492
sV154, 185, 173
p493
V623 C
p494
sV189, 154, 122
p495
V2316 C
p496
sV197, 41, 155
p497
V240 C
p498
sV162, 172, 171
p499
V442 C
p500
sV7, 98, 200
p501
V2387 C
p502
sV113, 183, 144
p503
V2248 C
p504
sV254, 219, 0
p505
V108 C
p506
sV168, 213, 186
p507
V2246 C
p508
sV115, 123, 76
p509
V5763 C
p510
sV175, 35, 28
p511
V2350 C
p512
sV61, 68, 30
p513
V5747 C
p514
sV93, 40, 95
p515
V261 C
p516
sV179, 213, 125
p517
V2284 C
p518
sV255, 127, 50
p519
V1575 C
p520
sV181, 133, 0
p521
V125 C
p522
sV94, 75, 60
p523
V7519 C
p524
sV52, 167, 152
p525
V2401 C
p526
sV0, 122, 62
p527
V7732 C
p528
sV217, 134, 186
p529
V673 C
p530
sV252, 175, 192
p531
V1767 C
p532
sV82, 49, 120
p533
V7680 C
p534
sV248, 72, 94
p535
V1785 C
p536
sV35, 97, 146
p537
V647 C
p538
sV116, 79, 40
p539
V463 C
p540
sV209, 221, 230
p541
V642 C
p542
sV214, 147, 138
p543
V7606 C
p544
sV182, 207, 174
p545
V2260 C
p546
sV128, 47, 45
p547
V7624 C
p548
sV113, 197, 232
p549
V297 C
p550
sV203, 160, 82
p551
V7407 C
p552
sV0, 149, 122
p553
V2243 C
p554
sV78, 0, 142
p555
VMedium Purple C
p556
sV154, 219, 232
p557
V304 C
p558
sV0, 150, 94
p559
V340 C
p560
sV254, 173, 119
p561
V7410 C
p562
sV255, 143, 28
p563
V1495 C
p564
sV222, 124, 0
p565
V138 C
p566
sV0, 130, 186
p567
V640 C
p568
sV205, 234, 128
p569
V373 C
p570
sV139, 166, 193
p571
V2156 C
p572
sV104, 129, 151
p573
V2165 C
p574
sV249, 66, 58
p575
VWarm Red C
p576
sV196, 188, 183
p577
V406 C
p578
sV0, 145, 218
p579
V2192 C
p580
sV0, 127, 163
p581
V314 C
p582
sV145, 73, 16
p583
V2315 C
p584
sV129, 176, 210
p585
V2169 C
p586
sV33, 87, 50
p587
V357 C
p588
sV172, 20, 90
p589
V215 C
p590
sV134, 38, 51
p591
V202 C
p592
sV91, 103, 112
p593
V431 C
p594
sV170, 219, 30
p595
V2290 C
p596
sV116, 209, 234
p597
VBlue 0821 C
p598
sV125, 98, 46
p599
V7560 C
p600
sV131, 141, 200
p601
V2114 C
p602
sV180, 107, 122
p603
V695 C
p604
sV197, 232, 108
p605
V374 C
p606
sV210, 159, 19
p607
V7555 C
p608
sV152, 182, 228
p609
V2128 C
p610
sV49, 155, 66
p611
V7739 C
p612
sV250, 170, 141
p613
V2022 C
p614
sV255, 106, 19
p615
V1585 C
p616
sV102, 67, 90
p617
V5195 C
p618
sV0, 70, 119
p619
V2187 C
p620
sV183, 119, 41
p621
V7511 C
p622
sV119, 37, 131
p623
V2612 C
p624
sV198, 87, 154
p625
V674 C
p626
sV67, 105, 91
p627
V5545 C
p628
sV224, 198, 173
p629
V4685 C
p630
sV105, 63, 35
p631
V469 C
p632
sV215, 169, 227
p633
V2562 C
p634
sV76, 140, 43
p635
V363 C
p636
sV201, 128, 158
p637
V7431 C
p638
sV91, 194, 231
p639
V2985 C
p640
sV47, 111, 122
p641
V2214 C
p642
sV46, 86, 101
p643
V2215 C
p644
sV213, 158, 215
p645
V7438 C
p646
sV95, 143, 180
p647
V7454 C
p648
sV124, 40, 85
p649
V683 C
p650
sV251, 216, 114
p651
V1215 C
p652
sV87, 44, 95
p653
V525 C
p654
sV247, 206, 215
p655
V706 C
p656
sV236, 179, 203
p657
V203 C
p658
sV241, 196, 0
p659
V7406 C
p660
sV120, 113, 33
p661
V385 C
p662
sV122, 62, 58
p663
V499 C
p664
sV197, 180, 227
p665
V2635 C
p666
sV133, 120, 116
p667
V409 C
p668
sV51, 63, 72
p669
V432 C
p670
sV0, 132, 202
p671
VMedium Blue C
p672
sV246, 117, 153
p673
V190 C
p674
sV101, 154, 177
p675
V2207 C
p676
sV158, 106, 56
p677
V7574 C
p678
sV214, 0, 28
p679
V2035 C
p680
sV39, 159, 0
p681
V2424 C
p682
sV78, 101, 72
p683
V2409 C
p684
sV88, 162, 145
p685
V2241 C
p686
sV79, 76, 177
p687
V2367 C
p688
sV154, 135, 0
p689
V3985 C
p690
sV0, 106, 198
p691
V2175 C
p692
sV55, 58, 54
p693
V447 C
p694
sV190, 83, 28
p695
V167 C
p696
sV243, 234, 93
p697
V3935 C
p698
sV237, 200, 163
p699
V719 C
p700
sV0, 85, 140
p701
V7462 C
p702
sV40, 92, 77
p703
V626 C
p704
sV252, 200, 155
p705
V712 C
p706
sV0, 129, 166
p707
V2391 C
p708
sV181, 129, 80
p709
V729 C
p710
sV57, 85, 66
p711
V7736 C
p712
sV180, 126, 0
p713
V7551 C
p714
sV222, 205, 231
p715
V2085 C
p716
sV85, 80, 37
p717
V5815 C
p718
sV0, 120, 100
p719
V3295 C
p720
sV164, 56, 168
p721
V2069 C
p722
sV162, 170, 173
p723
V429 C
p724
sV235, 51, 0
p725
V2028 C
p726
sV197, 217, 122
p727
V2289 C
p728
sV158, 162, 162
p729
V422 C
p730
sV255, 127, 65
p731
V164 C
p732
sV49, 38, 29
p733
VBlack 4 C
p734
sV217, 225, 226
p735
V7541 C
p736
sV231, 186, 228
p737
V250 C
p738
sV255, 138, 61
p739
V2025 C
p740
sV234, 218, 36
p741
V604 C
p742
sV175, 22, 133
p743
V241 C
p744
sV185, 151, 91
p745
V465 C
p746
sV110, 76, 30
p747
V1405 C
p748
sV0, 149, 200
p749
V639 C
p750
sV165, 156, 148
p751
VWarm Gray 6 C
p752
sV103, 46, 69
p753
V7643 C
p754
sV0, 80, 181
p755
V2388 C
p756
sV20, 27, 77
p757
V2766 C
p758
sV224, 231, 33
p759
V388 C
p760
sV122, 153, 172
p761
V5425 C
p762
sV206, 0, 55
p763
V206 C
p764
sV37, 107, 162
p765
V2151 C
p766
sV134, 94, 156
p767
V2081 C
p768
sV116, 83, 28
p769
V140 C
p770
sV0, 79, 113
p771
V3025 C
p772
sV158, 0, 126
p773
V2415 C
p774
sV180, 169, 31
p775
V7766 C
p776
sV0, 106, 82
p777
V3298 C
p778
sV185, 112, 0
p779
V2014 C
p780
sV219, 200, 182
p781
V482 C
p782
sV255, 94, 0
p783
VBright Orange C
p784
sV140, 130, 121
p785
VWarm Gray 8 C
p786
sV113, 153, 73
p787
V7490 C
p788
sV92, 170, 127
p789
V2249 C
p790
sV212, 93, 0
p791
V717 C
p792
sV100, 47, 108
p793
V520 C
p794
sV207, 127, 0
p795
V145 C
p796
sV175, 39, 47
p797
V1805 C
p798
sV138, 57, 27
p799
V7526 C
p800
sV207, 87, 138
p801
V2046 C
p802
sV133, 67, 30
p803
V7517 C
p804
sV19, 50, 43
p805
V627 C
p806
sV0, 107, 166
p807
V307 C
p808
sV19, 30, 41
p809
V7547 C
p810
sV0, 60, 113
p811
V541 C
p812
sV69, 53, 54
p813
V439 C
p814
sV175, 149, 211
p815
V2073 C
p816
sV0, 178, 169
p817
V326 C
p818
sV0, 172, 160
p819
V2399 C
p820
sV0, 104, 69
p821
V7728 C
p822
sV114, 72, 189
p823
V2089 C
p824
sV212, 139, 200
p825
V514 C
p826
sV131, 49, 119
p827
V512 C
p828
sV167, 213, 0
p829
V2291 C
p830
sV103, 33, 70
p831
V229 C
p832
sV131, 65, 44
p833
V7601 C
p834
sV135, 75, 82
p835
V4985 C
p836
sV153, 72, 120
p837
V682 C
p838
sV255, 62, 181
p839
V806 C
p840
sV107, 76, 76
p841
V7616 C
p842
sV103, 94, 51
p843
V7757 C
p844
sV220, 182, 201
p845
V685 C
p846
sV234, 190, 219
p847
V217 C
p848
sV122, 204, 0
p849
V2286 C
p850
sV102, 89, 108
p851
V2364 C
p852
sV137, 83, 47
p853
V7567 C
p854
sV126, 73, 102
p855
V2056 C
p856
sV240, 179, 35
p857
V7409 C
p858
sV0, 99, 91
p859
V7720 C
p860
sV229, 85, 79
p861
V2348 C
p862
sV193, 178, 182
p863
V435 C
p864
sV51, 47, 33
p865
VBlack 2 C
p866
sV172, 118, 68
p867
V2314 C
p868
sV186, 189, 139
p869
V5787 C
p870
sV0, 122, 51
p871
V356 C
p872
sV137, 141, 141
p873
V423 C
p874
sV191, 184, 0
p875
V397 C
p876
sV108, 87, 27
p877
V133 C
p878
sV0, 48, 87
p879
V540 C
p880
sV133, 44, 77
p881
V2049 C
p882
sV138, 141, 143
p883
V877 C
p884
sV224, 98, 135
p885
V7423 C
p886
sV105, 60, 94
p887
V5125 C
p888
sV0, 177, 118
p889
V2416 C
p890
sV80, 166, 132
p891
V7723 C
p892
sV163, 127, 116
p893
V7614 C
p894
sV166, 159, 136
p895
V7536 C
p896
sV34, 136, 72
p897
V7731 C
p898
sV234, 211, 226
p899
V670 C
p900
sV139, 196, 0
p901
V2293 C
p902
sV34, 28, 53
p903
V276 C
p904
sV29, 37, 45
p905
V433 C
p906
sV114, 34, 87
p907
V7650 C
p908
sV81, 47, 46
p909
V497 C
p910
sV0, 170, 19
p911
V2423 C
p912
sV120, 47, 64
p913
V195 C
p914
sV0, 132, 212
p915
V2184 C
p916
sV0, 132, 213
p917
V2173 C
p918
sV218, 165, 173
p919
V501 C
p920
sV0, 133, 173
p921
V7704 C
p922
sV187, 221, 230
p923
V7457 C
p924
sV155, 119, 147
p925
V5145 C
p926
sV192, 163, 146
p927
V4735 C
p928
sV214, 154, 45
p929
V7563 C
p930
sV20, 123, 209
p931
V2172 C
p932
sV255, 194, 123
p933
V149 C
p934
sV0, 103, 185
p935
V2144 C
p936
sV248, 144, 165
p937
V708 C
p938
sV154, 106, 79
p939
V7525 C
p940
sV0, 51, 160
p941
V286 C
p942
sV207, 111, 119
p943
V2340 C
p944
sV205, 160, 119
p945
V728 C
p946
sV0, 106, 142
p947
V7706 C
p948
sV243, 213, 78
p949
V128 C
p950
sV29, 60, 52
p951
V560 C
p952
sV80, 127, 112
p953
V625 C
p954
sV243, 149, 199
p955
V2037 C
p956
sV214, 210, 196
p957
V7527 C
p958
sV94, 116, 97
p959
V5615 C
p960
sV137, 168, 79
p961
V2276 C
p962
sV152, 164, 174
p963
V7543 C
p964
sV120, 157, 74
p965
V576 C
p966
sV206, 15, 105
p967
V214 C
p968
sV191, 204, 128
p969
V7492 C
p970
sV171, 199, 202
p971
V5513 C
p972
sV65, 116, 141
p973
V7698 C
p974
sV97, 79, 37
p975
V4485 C
p976
sV0, 133, 202
p977
VProcess Blue C
p978
sV115, 46, 74
p979
V7642 C
p980
sV183, 219, 87
p981
V2298 C
p982
sV157, 34, 53
p983
V201 C
p984
sV201, 177, 208
p985
V523 C
p986
sV0, 156, 182
p987
V2229 C
p988
sV113, 204, 152
p989
V346 C
p990
sV245, 155, 187
p991
V1905 C
p992
sV124, 224, 211
p993
V3245 C
p994
sV124, 127, 171
p995
V7675 C
p996
sV62, 135, 203
p997
V2143 C
p998
sV178, 168, 162
p999
V407 C
p1000
sV104, 111, 18
p1001
V2307 C
p1002
sV147, 165, 207
p1003
V2134 C
p1004
sV109, 205, 184
p1005
V3248 C
p1006
sV107, 143, 156
p1007
V2178 C
p1008
sV0, 156, 166
p1009
V320 C
p1010
sV164, 116, 73
p1011
V2318 C
p1012
sV75, 149, 96
p1013
V7730 C
p1014
sV150, 60, 189
p1015
V7442 C
p1016
sV139, 211, 230
p1017
V636 C
p1018
sV119, 127, 168
p1019
V2108 C
p1020
sV109, 51, 50
p1021
V7629 C
p1022
sV0, 199, 177
p1023
V3265 C
p1024
sV213, 194, 216
p1025
V524 C
p1026
sV71, 10, 104
p1027
V2617 C
p1028
sV190, 202, 234
p1029
V2120 C
p1030
sV195, 215, 238
p1031
V2707 C
p1032
sV214, 105, 101
p1033
V2031 C
p1034
sV162, 178, 200
p1035
V536 C
p1036
sV239, 182, 97
p1037
V2009 C
p1038
sV0, 78, 168
p1039
V2145 C
p1040
sV127, 115, 132
p1041
V2359 C
p1042
sV248, 224, 142
p1043
V1205 C
p1044
sV0, 59, 92
p1045
V302 C
p1046
sV167, 225, 99
p1047
V2283 C
p1048
sV0, 171, 142
p1049
V3268 C
p1050
sV190, 132, 163
p1051
V687 C
p1052
sV0, 186, 179
p1053
V2398 C
p1054
sV80, 133, 144
p1055
V2212 C
p1056
sV192, 105, 194
p1057
V2067 C
p1058
sV254, 203, 139
p1059
V148 C
p1060
sV0, 86, 112
p1061
V7708 C
p1062
sV106, 109, 205
p1063
V2366 C
p1064
sV165, 48, 124
p1065
V2063 C
p1066
sV159, 143, 202
p1067
V2100 C
p1068
sV0, 150, 143
p1069
V7716 C
p1070
sV152, 115, 172
p1071
V2080 C
p1072
sV223, 25, 149
p1073
V225 C
p1074
sV253, 218, 36
p1075
V115 C
p1076
sV109, 113, 46
p1077
V5757 C
p1078
sV170, 138, 0
p1079
V111 C
p1080
sV90, 69, 34
p1081
V7553 C
p1082
sV207, 69, 32
p1083
V173 C
p1084
sV201, 100, 207
p1085
V252 C
p1086
sV238, 212, 132
p1087
V7403 C
p1088
sV229, 114, 0
p1089
V152 C
p1090
sV197, 207, 218
p1091
V538 C
p1092
sV127, 48, 53
p1093
V491 C
p1094
sV92, 70, 43
p1095
V462 C
p1096
sV41, 143, 194
p1097
V7689 C
p1098
sV62, 43, 46
p1099
VBlack 5 C
p1100
sV208, 196, 197
p1101
V434 C
p1102
sV48, 58, 178
p1103
V2126 C
p1104
sV52, 101, 127
p1105
V7699 C
p1106
sV33, 39, 33
p1107
VBlack 3 C
p1108
sV23, 63, 53
p1109
V567 C
p1110
sV0, 47, 108
p1111
V294 C
p1112
sV0, 99, 65
p1113
V3425 C
p1114
sV219, 10, 91
p1115
V2040 C
p1116
sV0, 32, 91
p1117
V281 C
p1118
sV213, 162, 134
p1119
V7514 C
p1120
sV163, 178, 164
p1121
V5645 C
p1122
sV195, 198, 168
p1123
V5803 C
p1124
sV240, 232, 123
p1125
V602 C
p1126
sV196, 214, 164
p1127
V580 C
p1128
sV97, 33, 65
p1129
V690 C
p1130
sV139, 71, 32
p1131
V1615 C
p1132
sV0, 75, 135
p1133
V301 C
p1134
sV81, 40, 79
p1135
V262 C
p1136
sV207, 146, 183
p1137
V2057 C
p1138
sV231, 147, 183
p1139
V2044 C
p1140
sV78, 75, 72
p1141
V2336 C
p1142
sV255, 160, 106
p1143
V1565 C
p1144
sV197, 0, 62
p1145
V1935 C
p1146
sV89, 98, 29
p1147
V378 C
p1148
sV0, 140, 160
p1149
V2230 C
p1150
sV221, 127, 211
p1151
V245 C
p1152
sV72, 162, 63
p1153
V7738 C
p1154
sV0, 187, 126
p1155
V2414 C
p1156
sV242, 205, 0
p1157
V7405 C
p1158
sV0, 98, 114
p1159
V3155 C
p1160
sV205, 181, 167
p1161
V4745 C
p1162
sV0, 71, 187
p1163
V2728 C
p1164
sV213, 0, 50
p1165
V199 C
p1166
sV0, 108, 91
p1167
V568 C
p1168
sV39, 153, 137
p1169
V7473 C
p1170
sV198, 146, 20
p1171
V1245 C
p1172
sV88, 44, 131
p1173
V268 C
p1174
sV17, 87, 64
p1175
V343 C
p1176
sV255, 88, 105
p1177
V2346 C
p1178
sV164, 73, 61
p1179
V7608 C
p1180
sV62, 105, 145
p1181
V2160 C
p1182
sV233, 205, 208
p1183
V691 C
p1184
sV127, 173, 227
p1185
V2142 C
p1186
sV63, 32, 33
p1187
V4975 C
p1188
sV229, 158, 109
p1189
V472 C
p1190
sV255, 177, 187
p1191
V176 C
p1192
sV58, 145, 63
p1193
V7740 C
p1194
sV0, 129, 109
p1195
V569 C
p1196
sV236, 232, 26
p1197
V395 C
p1198
sV215, 163, 171
p1199
V693 C
p1200
sV60, 16, 83
p1201
V2627 C
p1202
sV255, 134, 116
p1203
V170 C
p1204
sV177, 85, 51
p1205
V7592 C
p1206
sV182, 90, 101
p1207
V2342 C
p1208
sV155, 227, 191
p1209
V7478 C
p1210
sV124, 135, 142
p1211
V430 C
p1212
sV255, 109, 106
p1213
V2345 C
p1214
sV7, 79, 113
p1215
V2210 C
p1216
sV101, 78, 163
p1217
V2096 C
p1218
sV122, 225, 191
p1219
V3375 C
p1220
sV28, 87, 165
p1221
V2133 C
p1222
sV0, 118, 114
p1223
V7718 C
p1224
sV156, 97, 105
p1225
V4995 C
p1226
sV56, 73, 103
p1227
V2378 C
p1228
sV103, 135, 183
p1229
V7682 C
p1230
sV250, 187, 203
p1231
V182 C
p1232
sV0, 124, 88
p1233
V2419 C
p1234
sV171, 173, 35
p1235
V7745 C
p1236
sV223, 194, 195
p1237
V5035 C
p1238
sV92, 184, 178
p1239
V7472 C
p1240
sV62, 72, 39
p1241
V5743 C
p1242
sV219, 222, 112
p1243
V585 C
p1244
sV219, 138, 6
p1245
V7564 C
p1246
sV228, 215, 126
p1247
V460 C
p1248
sV0, 179, 136
p1249
V339 C
p1250
sV255, 217, 0
p1251
VMedium Yellow C
p1252
sV249, 56, 34
p1253
VBright Red C
p1254
sV161, 34, 78
p1255
V2041 C
p1256
sV205, 84, 91
p1257
V7418 C
p1258
sV119, 197, 213
p1259
V630 C
p1260
sV59, 69, 89
p1261
V2379 C
p1262
sV91, 98, 54
p1263
V7498 C
p1264
sV201, 139, 219
p1265
V2572 C
p1266
sV253, 208, 134
p1267
V1345 C
p1268
sV145, 47, 70
p1269
V7637 C
p1270
sV0, 134, 191
p1271
V7460 C
p1272
sV244, 218, 64
p1273
V7404 C
p1274
sV75, 48, 72
p1275
V518 C
p1276
sV56, 47, 45
p1277
V412 C
p1278
sV224, 192, 159
p1279
V726 C
p1280
sV113, 124, 125
p1281
V444 C
p1282
sV238, 83, 64
p1283
V2027 C
p1284
sV40, 97, 64
p1285
V7734 C
p1286
sV228, 198, 212
p1287
V684 C
p1288
sV231, 130, 169
p1289
V204 C
p1290
sV94, 81, 77
p1291
V411 C
p1292
sV248, 124, 86
p1293
V2024 C
p1294
sV0, 88, 124
p1295
V308 C
p1296
sV157, 150, 141
p1297
V402 C
p1298
sV241, 167, 220
p1299
V236 C
p1300
sV112, 47, 138
p1301
V526 C
p1302
sV244, 166, 215
p1303
V230 C
p1304
sV139, 184, 232
p1305
V278 C
p1306
sV137, 129, 61
p1307
V5825 C
p1308
sV148, 121, 93
p1309
V7504 C
p1310
sV0, 165, 223
p1311
V2202 C
p1312
sV242, 130, 127
p1313
V2029 C
p1314
sV250, 224, 83
p1315
V113 C
p1316
sV99, 102, 106
p1317
VCool Gray 10 C
p1318
sV211, 130, 53
p1319
V7412 C
p1320
sV181, 101, 167
p1321
V2352 C
p1322
sV183, 206, 149
p1323
V578 C
p1324
sV196, 214, 0
p1325
V382 C
p1326
sV220, 213, 154
p1327
V614 C
p1328
sV255, 163, 0
p1329
V137 C
p1330
sV255, 163, 181
p1331
V1765 C
p1332
sV101, 50, 121
p1333
V7664 C
p1334
sV131, 121, 88
p1335
V2327 C
p1336
sV152, 72, 86
p1337
V696 C
p1338
sV196, 178, 0
p1339
V7759 C
p1340
sV0, 62, 81
p1341
V3035 C
p1342
sV136, 219, 223
p1343
V318 C
p1344
sV130, 93, 199
p1345
V2088 C
p1346
sV128, 224, 167
p1347
V353 C
p1348
sV191, 206, 214
p1349
V5455 C
p1350
sV0, 76, 151
p1351
V2945 C
p1352
sV147, 50, 142
p1353
V513 C
p1354
sV221, 229, 237
p1355
V656 C
p1356
sV137, 118, 48
p1357
V7755 C
p1358
sV179, 163, 105
p1359
V4515 C
p1360
sV222, 190, 210
p1361
V679 C
p1362
sV188, 225, 148
p1363
V7486 C
p1364
sV208, 0, 111
p1365
V226 C
p1366
sV92, 127, 113
p1367
V5555 C
p1368
sV186, 88, 38
p1369
V7584 C
p1370
sV159, 125, 35
p1371
V7557 C
p1372
sV171, 202, 233
p1373
V277 C
p1374
sV237, 233, 57
p1375
V394 C
p1376
sV120, 170, 0
p1377
V2294 C
p1378
sV0, 46, 93
p1379
V648 C
p1380
sV189, 71, 42
p1381
V7598 C
p1382
sV106, 209, 227
p1383
V310 C
p1384
sV182, 114, 51
p1385
V7572 C
p1386
sV0, 79, 89
p1387
V3165 C
p1388
sV84, 137, 163
p1389
V2208 C
p1390
sV0, 89, 76
p1391
V561 C
p1392
sV101, 88, 177
p1393
V2102 C
p1394
sV186, 197, 185
p1395
V5665 C
p1396
sV211, 131, 43
p1397
V7570 C
p1398
sV0, 198, 94
p1399
V2420 C
p1400
sV124, 77, 58
p1401
V4705 C
p1402
sV177, 78, 181
p1403
V2068 C
p1404
sV95, 37, 159
p1405
V267 C
p1406
sV175, 169, 160
p1407
V401 C
p1408
sV0, 103, 71
p1409
V342 C
p1410
sV0, 88, 68
p1411
V7729 C
p1412
sV230, 186, 168
p1413
V7415 C
p1414
sV158, 83, 48
p1415
V7586 C
p1416
sV125, 34, 72
p1417
V216 C
p1418
sV177, 228, 227
p1419
V317 C
p1420
sV159, 145, 42
p1421
V619 C
p1422
sV141, 200, 232
p1423
V2905 C
p1424
sV222, 163, 156
p1425
V2338 C
p1426
sV122, 147, 220
p1427
V2123 C
p1428
sV27, 128, 109
p1429
V2244 C
p1430
sV0, 45, 114
p1431
V288 C
p1432
sV233, 196, 199
p1433
V503 C
p1434
sV229, 186, 193
p1435
V502 C
p1436
sV128, 49, 167
p1437
V527 C
p1438
sV45, 104, 196
p1439
V2386 C
p1440
sV242, 172, 185
p1441
V700 C
p1442
sV104, 89, 60
p1443
V2329 C
p1444
sV135, 38, 81
p1445
V7435 C
p1446
sV233, 236, 107
p1447
V386 C
p1448
sV58, 83, 130
p1449
V2140 C
p1450
sV31, 42, 68
p1451
V533 C
p1452
sV128, 140, 36
p1453
V2306 C
p1454
sV100, 167, 11
p1455
V369 C
p1456
sV254, 216, 128
p1457
V2005 C
p1458
sV0, 169, 206
p1459
V312 C
p1460
sV248, 207, 169
p1461
V2015 C
p1462
sV253, 210, 110
p1463
V134 C
p1464
sV240, 233, 145
p1465
V601 C
p1466
sV187, 133, 171
p1467
V2058 C
p1468
sV239, 215, 229
p1469
V2050 C
p1470
sV126, 127, 116
p1471
V416 C
p1472
sV212, 181, 158
p1473
V7590 C
p1474
sV224, 236, 137
p1475
V2295 C
p1476
sV0, 109, 104
p1477
V7719 C
p1478
sV0, 151, 117
p1479
V334 C
p1480
sV191, 13, 62
p1481
V193 C
p1482
sV0, 37, 84
p1483
V655 C
p1484
sV0, 174, 214
p1485
V2201 C
p1486
sV125, 155, 193
p1487
V652 C
p1488
sV198, 133, 143
p1489
V500 C
p1490
sV0, 154, 206
p1491
V801 C
p1492
sV108, 93, 52
p1493
V7561 C
p1494
sV171, 92, 87
p1495
V7523 C
p1496
sV251, 221, 122
p1497
V2004 C
p1498
sV136, 139, 141
p1499
VCool Gray 8 C
p1500
sV28, 66, 32
p1501
V2411 C
p1502
sV239, 51, 64
p1503
VRed 032 C
p1504
sV51, 85, 37
p1505
V2266 C
p1506
sV184, 157, 24
p1507
V457 C
p1508
sV98, 52, 18
p1509
V732 C
p1510
sV0, 150, 57
p1511
V355 C
p1512
sV176, 74, 90
p1513
V7419 C
p1514
sV13, 82, 87
p1515
V7476 C
p1516
sV255, 200, 69
p1517
V1225 C
p1518
sV94, 126, 41
p1519
V2279 C
p1520
sV147, 77, 17
p1521
V724 C
p1522
sV218, 170, 0
p1523
V110 C
p1524
sV140, 133, 123
p1525
V403 C
p1526
sV134, 200, 188
p1527
V564 C
p1528
sV228, 0, 43
p1529
V185 C
p1530
sV175, 152, 0
p1531
V104 C
p1532
sV232, 146, 124
p1533
V486 C
p1534
sV74, 106, 29
p1535
V2280 C
p1536
sV0, 165, 189
p1537
V2228 C
p1538
sV189, 155, 96
p1539
V7562 C
p1540
sV97, 94, 155
p1541
V7669 C
p1542
sV215, 196, 183
p1543
V4755 C
p1544
sV103, 109, 153
p1545
V2109 C
p1546
sV155, 211, 221
p1547
V629 C
p1548
sV162, 119, 166
p1549
V7440 C
p1550
sV251, 225, 34
p1551
V107 C
p1552
sV0, 66, 106
p1553
V2188 C
p1554
sV206, 220, 0
p1555
V381 C
p1556
sV104, 110, 159
p1557
V7668 C
p1558
sV113, 110, 106
p1559
V2333 C
p1560
sV213, 120, 0
p1561
V1385 C
p1562
sV164, 214, 94
p1563
V367 C
p1564
sV17, 94, 103
p1565
V5473 C
p1566
sV210, 206, 158
p1567
V5875 C
p1568
sV158, 179, 86
p1569
V2303 C
p1570
sV255, 106, 57
p1571
V1645 C
p1572
sV232, 179, 195
p1573
V509 C
p1574
sV0, 89, 79
p1575
V3292 C
p1576
sV173, 124, 89
p1577
V4645 C
p1578
sV65, 182, 230
p1579
V298 C
p1580
sV241, 189, 200
p1581
V495 C
p1582
sV157, 176, 172
p1583
V5507 C
p1584
sV151, 153, 155
p1585
VCool Gray 7 C
p1586
sV207, 196, 147
p1587
V4535 C
p1588
sV49, 183, 0
p1589
V2421 C
p1590
sV0, 111, 98
p1591
V562 C
p1592
sV160, 94, 181
p1593
V2583 C
p1594
sV155, 174, 228
p1595
V2122 C
p1596
sV107, 48, 119
p1597
V7663 C
p1598
sV0, 139, 206
p1599
V2394 C
p1600
sV255, 178, 91
p1601
V150 C
p1602
sV117, 120, 123
p1603
VCool Gray 9 C
p1604
sV165, 223, 211
p1605
V572 C
p1606
sV4, 30, 66
p1607
V282 C
p1608
sV137, 59, 103
p1609
V689 C
p1610
sV255, 209, 0
p1611
V109 C
p1612
sV125, 63, 22
p1613
V725 C
p1614
sV199, 233, 149
p1615
V2282 C
p1616
sV198, 200, 155
p1617
V5797 C
p1618
sV225, 187, 180
p1619
V7605 C
p1620
sV120, 159, 144
p1621
V624 C
p1622
sV190, 58, 52
p1623
V180 C
p1624
sV99, 50, 49
p1625
V7630 C
p1626
sV197, 185, 172
p1627
V7528 C
p1628
sV115, 83, 29
p1629
V7552 C
p1630
sV0, 49, 60
p1631
V547 C
p1632
sV255, 114, 118
p1633
V805 C
p1634
sV200, 159, 182
p1635
V2052 C
p1636
sV178, 136, 185
p1637
V7439 C
p1638
sV0, 140, 149
p1639
V321 C
p1640
sV198, 170, 118
p1641
V466 C
p1642
sV139, 132, 215
p1643
V2715 C
p1644
sV215, 107, 0
p1645
V2019 C
p1646
sV131, 93, 50
p1647
V7575 C
p1648
sV142, 159, 188
p1649
V535 C
p1650
sV175, 149, 166
p1651
V5215 C
p1652
sV94, 39, 81
p1653
V7652 C
p1654
sV232, 119, 34
p1655
V158 C
p1656
sV240, 78, 152
p1657
V212 C
p1658
sV45, 140, 158
p1659
V2221 C
p1660
sV202, 162, 221
p1661
V529 C
p1662
sV155, 50, 89
p1663
V7434 C
p1664
sV164, 200, 225
p1665
V543 C
p1666
sV255, 157, 110
p1667
V163 C
p1668
sV198, 125, 48
p1669
V7571 C
p1670
sV72, 122, 123
p1671
V7475 C
p1672
sV29, 79, 145
p1673
V7686 C
p1674
sV0, 114, 206
p1675
V285 C
p1676
sV0, 123, 75
p1677
V7726 C
p1678
sV121, 134, 60
p1679
V7491 C
p1680
sV0, 179, 115
p1681
V2250 C
p1682
sV119, 159, 181
p1683
V2206 C
p1684
sV126, 221, 211
p1685
V7471 C
p1686
sV151, 27, 47
p1687
V7427 C
p1688
sV167, 109, 17
p1689
V146 C
p1690
sV255, 185, 144
p1691
V1555 C
p1692
sV94, 103, 56
p1693
V5753 C
p1694
sV94, 147, 219
p1695
V2381 C
p1696
sV225, 205, 0
p1697
V605 C
p1698
sV0, 123, 95
p1699
V335 C
p1700
sV177, 201, 232
p1701
V658 C
p1702
sV79, 117, 139
p1703
V5405 C
p1704
sV162, 0, 103
p1705
V234 C
p1706
sV0, 176, 139
p1707
VBright Green C
p1708
sV219, 226, 233
p1709
V649 C
p1710
sV88, 92, 59
p1711
V7763 C
p1712
sV160, 218, 179
p1713
V344 C
p1714
sV206, 217, 229
p1715
V650 C
p1716
sV165, 176, 227
p1717
V2113 C
p1718
sV173, 220, 145
p1719
V358 C
p1720
sV68, 214, 44
p1721
V802 C
p1722
sV0, 156, 222
p1723
V2925 C
p1724
sV208, 223, 0
p1725
V389 C
p1726
sV89, 74, 37
p1727
V450 C
p1728
sV101, 56, 25
p1729
V1545 C
p1730
sV184, 97, 37
p1731
V471 C
p1732
sV0, 112, 65
p1733
V7733 C
p1734
sV255, 205, 0
p1735
V116 C
p1736
sV168, 173, 0
p1737
V383 C
p1738
sV193, 167, 226
p1739
V264 C
p1740
sV173, 150, 220
p1741
V2645 C
p1742
sV255, 88, 93
p1743
V178 C
p1744
sV0, 163, 224
p1745
V299 C
p1746
sV240, 236, 116
p1747
V393 C
p1748
sV149, 149, 210
p1749
V271 C
p1750
sV134, 74, 51
p1751
V7581 C
p1752
sV150, 120, 211
p1753
V2655 C
p1754
sV189, 122, 179
p1755
V2351 C
p1756
sV198, 110, 78
p1757
V7618 C
p1758
sV225, 183, 167
p1759
V7513 C
p1760
sV204, 161, 166
p1761
V5015 C
p1762
sV128, 34, 95
p1763
V242 C
p1764
sV239, 223, 0
p1765
V3955 C
p1766
sV86, 183, 230
p1767
V2190 C
p1768
sV255, 92, 57
p1769
V171 C
p1770
sV139, 124, 94
p1771
V2326 C
p1772
sV200, 227, 121
p1773
V2288 C
p1774
sV216, 96, 24
p1775
V1595 C
p1776
sV88, 68, 70
p1777
V438 C
p1778
sV190, 84, 0
p1779
V2020 C
p1780
sV44, 45, 101
p1781
V2119 C
p1782
sV159, 92, 192
p1783
V7441 C
p1784
sV220, 134, 153
p1785
V493 C
p1786
sV134, 156, 174
p1787
V2163 C
p1788
sV180, 69, 141
p1789
V2062 C
p1790
sV89, 49, 95
p1791
V519 C
p1792
sV81, 42, 68
p1793
V5115 C
p1794
sV34, 55, 43
p1795
V5605 C
p1796
sV173, 164, 0
p1797
V398 C
p1798
sV32, 21, 71
p1799
V2765 C
p1800
sV112, 63, 42
p1801
V478 C
p1802
sV242, 199, 92
p1803
V141 C
p1804
sV202, 199, 167
p1805
V454 C
p1806
sV0, 86, 126
p1807
V2153 C
p1808
sV245, 126, 182
p1809
V211 C
p1810
sV101, 49, 101
p1811
V2622 C
p1812
sV76, 159, 200
p1813
V2389 C
p1814
sV148, 69, 11
p1815
V1535 C
p1816
sV167, 58, 100
p1817
V7433 C
p1818
sV98, 68, 187
p1819
V2097 C
p1820
sV108, 106, 129
p1821
V2362 C
p1822
sV203, 51, 59
p1823
V1797 C
p1824
sV225, 6, 0
p1825
V2347 C
p1826
sV208, 200, 131
p1827
V616 C
p1828
sV62, 177, 200
p1829
V631 C
p1830
sV248, 229, 154
p1831
V2001 C
p1832
sV74, 201, 227
p1833
V2198 C
p1834
sV123, 167, 188
p1835
V7695 C
p1836
sV167, 230, 215
p1837
V331 C
p1838
sV0, 133, 34
p1839
V2258 C
p1840
sV170, 157, 46
p1841
V7767 C
p1842
sV218, 41, 28
p1843
V485 C
p1844
sV0, 40, 85
p1845
V295 C
p1846
sV179, 61, 38
p1847
V7599 C
p1848
sV158, 112, 139
p1849
V2054 C
p1850
sV255, 117, 0
p1851
V2018 C
p1852
sV22, 92, 125
p1853
V7700 C
p1854
sV0, 119, 139
p1855
V3145 C
p1856
sV210, 141, 211
p1857
V2066 C
p1858
sV237, 155, 51
p1859
V2011 C
p1860
sV0, 133, 120
p1861
V3282 C
p1862
sV183, 169, 154
p1863
V7529 C
p1864
sV123, 166, 222
p1865
V7453 C
p1866
sV242, 198, 207
p1867
V496 C
p1868
sV0, 38, 62
p1869
V2965 C
p1870
sV251, 99, 126
p1871
V1777 C
p1872
sV252, 227, 0
p1873
V102 C
p1874
sV160, 144, 116
p1875
V2325 C
p1876
sV220, 134, 51
p1877
V7413 C
p1878
sV137, 178, 196
p1879
V2205 C
p1880
sV168, 169, 158
p1881
V414 C
p1882
sV145, 0, 72
p1883
V221 C
p1884
sV0, 58, 112
p1885
V654 C
p1886
sV185, 217, 235
p1887
V290 C
p1888
sV223, 160, 201
p1889
V672 C
p1890
sV152, 219, 206
p1891
V571 C
p1892
sV196, 164, 167
p1893
V7633 C
p1894
sV244, 99, 58
p1895
V2026 C
p1896
sV203, 211, 235
p1897
V2706 C
p1898
sV158, 42, 43
p1899
V7628 C
p1900
sV158, 42, 47
p1901
V704 C
p1902
sV247, 234, 72
p1903
V101 C
p1904
sV229, 109, 177
p1905
V218 C
p1906
sV221, 203, 164
p1907
V468 C
p1908
sV154, 187, 145
p1909
V2261 C
p1910
sV234, 190, 176
p1911
V7520 C
p1912
sV178, 180, 178
p1913
V421 C
p1914
sV214, 232, 101
p1915
V2296 C
p1916
sV140, 71, 153
p1917
V258 C
p1918
sV137, 115, 34
p1919
V119 C
p1920
sV198, 218, 231
p1921
V545 C
p1922
sV84, 98, 35
p1923
V371 C
p1924
sV191, 165, 184
p1925
V5155 C
p1926
sV161, 146, 178
p1927
V666 C
p1928
sV245, 182, 205
p1929
V1895 C
p1930
sV0, 169, 224
p1931
V2995 C
p1932
sV0, 177, 64
p1933
V354 C
p1934
sV205, 167, 136
p1935
V4665 C
p1936
sV135, 140, 180
p1937
V7674 C
p1938
sV205, 167, 134
p1939
V2311 C
p1940
sV0, 118, 128
p1941
V7714 C
p1942
sV0, 118, 129
p1943
V7474 C
p1944
sV37, 40, 42
p1945
V426 C
p1946
sV67, 176, 42
p1947
V361 C
p1948
sV124, 204, 108
p1949
V2269 C
p1950
sV184, 221, 225
p1951
V628 C
p1952
sV135, 2, 123
p1953
V2355 C
p1954
sV0, 42, 58
p1955
V303 C
p1956
sV36, 19, 95
p1957
V273 C
p1958
sV78, 195, 224
p1959
V637 C
p1960
sV71, 55, 41
p1961
V7533 C
p1962
sV255, 191, 63
p1963
V136 C
p1964
sV182, 207, 208
p1965
V5523 C
p1966
sV201, 151, 0
p1967
V117 C
p1968
sV252, 155, 179
p1969
V183 C
p1970
sV154, 190, 170
p1971
V558 C
p1972
sV165, 110, 135
p1973
V7646 C
p1974
sV180, 135, 94
p1975
V2317 C
p1976
sV91, 97, 143
p1977
V2110 C
p1978
sV105, 91, 36
p1979
V455 C
p1980
sV217, 199, 86
p1981
V458 C
p1982
sV115, 56, 29
p1983
V168 C
p1984
sV177, 181, 206
p1985
V2106 C
p1986
sV136, 141, 48
p1987
V7747 C
p1988
sV229, 106, 84
p1989
V7416 C
p1990
sV184, 178, 152
p1991
V2323 C
p1992
sV167, 168, 170
p1993
VCool Gray 6 C
p1994
sV192, 76, 54
p1995
V7619 C
p1996
sV123, 164, 219
p1997
V659 C
p1998
sV107, 53, 41
p1999
V175 C
p2000
sV75, 56, 76
p2001
V7448 C
p2002
sV0, 53, 148
p2003
V661 C
p2004
sV220, 107, 47
p2005
V7578 C
p2006
sV0, 53, 142
p2007
V2146 C
p2008
sV0, 20, 137
p2009
VReflex Blue C
p2010
sV131, 148, 184
p2011
V2136 C
p2012
sV142, 144, 137
p2013
V7539 C
p2014
sV66, 152, 181
p2015
V7459 C
p2016
sV40, 71, 52
p2017
V553 C
p2018
sV119, 110, 100
p2019
V404 C
p2020
sV255, 105, 0
p2021
V1505 C
p2022
sV0, 140, 21
p2023
V2426 C
p2024
sV23, 74, 91
p2025
V2182 C
p2026
sV234, 39, 194
p2027
V807 C
p2028
sV168, 61, 114
p2029
V7647 C
p2030
sV37, 74, 93
p2031
V2168 C
p2032
sV87, 114, 139
p2033
V2166 C
p2034
sV146, 76, 46
p2035
V7587 C
p2036
sV153, 96, 23
p2037
V1395 C
p2038
sV87, 41, 50
p2039
V504 C
p2040
sV192, 181, 97
p2041
V617 C
p2042
sV141, 185, 202
p2043
V550 C
p2044
sV145, 133, 44
p2045
V7760 C
p2046
sV98, 93, 32
p2047
V581 C
p2048
sV103, 130, 58
p2049
V575 C
p2050
sV91, 127, 149
p2051
V5415 C
p2052
sV118, 134, 146
p2053
V7544 C
p2054
sV186, 187, 177
p2055
V413 C
p2056
sV223, 70, 97
p2057
V198 C
p2058
sV79, 134, 142
p2059
V5483 C
p2060
sV179, 176, 196
p2061
V5295 C
p2062
sV199, 178, 222
p2063
V2071 C
p2064
sV0, 125, 138
p2065
V7713 C
p2066
sV128, 39, 108
p2067
V249 C
p2068
sV208, 161, 186
p2069
V686 C
p2070
sV89, 84, 120
p2071
V5275 C
p2072
sV3, 70, 56
p2073
V3308 C
p2074
sV239, 186, 225
p2075
V2365 C
p2076
sV0, 167, 181
p2077
V7710 C
p2078
sV161, 86, 28
p2079
V160 C
p2080
sV0, 122, 83
p2081
V341 C
p2082
sV250, 70, 22
p2083
V172 C
p2084
sV177, 179, 179
p2085
VCool Gray 5 C
p2086
sV5, 195, 222
p2087
V311 C
p2088
sV0, 167, 74
p2089
V2252 C
p2090
sV127, 156, 144
p2091
V5565 C
p2092
sV0, 187, 220
p2093
V2199 C
p2094
sV219, 228, 66
p2095
V380 C
p2096
sV255, 141, 161
p2097
V1775 C
p2098
sV111, 80, 145
p2099
V7677 C
p2100
sV81, 70, 137
p2101
V7671 C
p2102
sV80, 87, 89
p2103
V445 C
p2104
sV241, 180, 52
p2105
V143 C
p2106
sV163, 147, 130
p2107
V7530 C
p2108
sV186, 188, 22
p2109
V7744 C
p2110
sV198, 188, 208
p2111
V665 C
p2112
sV224, 226, 124
p2113
V586 C
p2114
sV213, 146, 170
p2115
V507 C
p2116
sV78, 53, 36
p2117
V2322 C
p2118
sV207, 220, 177
p2119
V2274 C
p2120
sV107, 61, 46
p2121
V7595 C
p2122
sV0, 38, 58
p2123
V539 C
p2124
sV93, 85, 29
p2125
V2308 C
p2126
sV16, 6, 159
p2127
VBlue 072 C
p2128
sV203, 163, 216
p2129
V2563 C
p2130
sV114, 130, 159
p2131
V2373 C
p2132
sV94, 79, 71
p2133
V2335 C
p2134
sV0, 98, 155
p2135
V3015 C
p2136
sV140, 137, 133
p2137
V2332 C
p2138
sV255, 163, 139
p2139
V1625 C
p2140
sV0, 98, 152
p2141
V7691 C
p2142
sV205, 121, 37
p2143
V7565 C
p2144
sV0, 154, 23
p2145
V2272 C
p2146
sV230, 188, 216
p2147
V671 C
p2148
sV116, 102, 97
p2149
V410 C
p2150
sV217, 180, 143
p2151
V727 C
p2152
sV192, 125, 89
p2153
V7591 C
p2154
sV255, 141, 109
p2155
V1635 C
p2156
sV117, 140, 192
p2157
V2135 C
p2158
sV203, 199, 147
p2159
V5865 C
p2160
sV0, 98, 105
p2161
V7715 C
p2162
sV68, 0, 153
p2163
VViolet C
p2164
sV224, 219, 227
p2165
V664 C
p2166
sV60, 203, 218
p2167
V2226 C
p2168
sV108, 194, 74
p2169
V360 C
p2170
sV239, 192, 110
p2171
V2008 C
p2172
sV81, 83, 74
p2173
V418 C
p2174
sV140, 226, 208
p2175
V332 C
p2176
sV174, 168, 165
p2177
V2331 C
p2178
sV121, 217, 124
p2179
V2268 C
p2180
sV230, 222, 119
p2181
V609 C
p2182
sV150, 113, 38
p2183
V7558 C
p2184
sV92, 6, 140
p2185
V2597 C
p2186
sV21, 31, 109
p2187
V2756 C
p2188
sV153, 214, 234
p2189
V2975 C
p2190
sV40, 51, 74
p2191
V2380 C
p2192
sV166, 184, 193
p2193
V2176 C
p2194
sV199, 36, 177
p2195
V246 C
p2196
sV179, 128, 157
p2197
V2053 C
p2198
sV0, 146, 189
p2199
V2183 C
p2200
sV0, 146, 188
p2201
V313 C
p2202
sV234, 184, 228
p2203
V243 C
p2204
sV86, 61, 130
p2205
V7679 C
p2206
sV250, 147, 112
p2207
V2023 C
p2208
sV248, 190, 214
p2209
V2036 C
p2210
sV174, 184, 98
p2211
V2302 C
p2212
sV72, 92, 199
p2213
V2726 C
p2214
sV146, 172, 160
p2215
V5575 C
p2216
sV227, 228, 141
p2217
V587 C
p2218
sV39, 93, 56
p2219
V7483 C
p2220
sV167, 162, 195
p2221
V7445 C
p2222
sV188, 209, 155
p2223
V579 C
p2224
sV113, 219, 212
p2225
V3242 C
p2226
sV0, 163, 173
p2227
V7467 C
p2228
sV207, 205, 201
p2229
V2330 C
p2230
sV0, 159, 77
p2231
V7482 C
p2232
sV113, 178, 201
p2233
V7458 C
p2234
sV138, 42, 43
p2235
V7623 C
p2236
sV78, 54, 41
p2237
V476 C
p2238
sV167, 102, 43
p2239
V7573 C
p2240
sV221, 164, 111
p2241
V721 C
p2242
sV239, 74, 129
p2243
V1915 C
p2244
sV137, 60, 71
p2245
V697 C
p2246
sV211, 187, 168
p2247
V481 C
p2248
sV212, 195, 4
p2249
V7758 C
p2250
sV0, 120, 141
p2251
V2223 C
p2252
sV177, 192, 188
p2253
V5517 C
p2254
sV70, 152, 203
p2255
V7688 C
p2256
sV187, 166, 0
p2257
V3975 C
p2258
sV235, 198, 223
p2259
V517 C
p2260
sV155, 203, 235
p2261
V291 C
p2262
sV147, 218, 73
p2263
V2285 C
p2264
sV0, 73, 118
p2265
V7693 C
p2266
sV80, 43, 58
p2267
V7645 C
p2268
sV190, 106, 20
p2269
V153 C
p2270
sV54, 116, 157
p2271
V2150 C
p2272
sV160, 134, 41
p2273
V7754 C
p2274
sV251, 221, 64
p2275
V114 C
p2276
sV143, 173, 21
p2277
V2301 C
p2278
sV155, 38, 182
p2279
V2592 C
p2280
sV118, 35, 47
p2281
V188 C
p2282
sV221, 116, 161
p2283
V2045 C
p2284
sV228, 0, 70
p2285
V192 C
p2286
sV39, 116, 174
p2287
V2383 C
p2288
sV83, 86, 90
p2289
VCool Gray 11 C
p2290
sV149, 105, 190
p2291
V2074 C
p2292
sV188, 32, 75
p2293
V7636 C
p2294
sV246, 235, 97
p2295
V100 C
p2296
sV136, 102, 188
p2297
V2075 C
p2298
sV145, 157, 157
p2299
V443 C
p2300
sV239, 66, 111
p2301
V191 C
p2302
sV176, 108, 150
p2303
V681 C
p2304
sV175, 92, 55
p2305
V7585 C
p2306
sV218, 24, 132
p2307
V219 C
p2308
sV68, 90, 62
p2309
V2410 C
p2310
sV89, 190, 201
p2311
V2227 C
p2312
sV155, 184, 211
p2313
V644 C
p2314
sV123, 100, 105
p2315
V437 C
p2316
sV52, 183, 143
p2317
V2413 C
p2318
sV125, 161, 196
p2319
V645 C
p2320
sV239, 219, 178
p2321
V7506 C
p2322
sV105, 179, 231
p2323
V292 C
p2324
sV44, 145, 153
p2325
V2236 C
p2326
sV92, 71, 56
p2327
V7589 C
p2328
sV231, 183, 138
p2329
V720 C
p2330
sV65, 39, 59
p2331
V7449 C
p2332
sV94, 54, 110
p2333
V7665 C
p2334
sV140, 92, 48
p2335
V2319 C
p2336
sV104, 91, 199
p2337
V2725 C
p2338
sV100, 51, 53
p2339
V1817 C
p2340
sV224, 69, 123
p2341
V205 C
p2342
sV64, 126, 201
p2343
V660 C
p2344
sV172, 79, 198
p2345
V2582 C
p2346
sV114, 176, 189
p2347
V2218 C
p2348
sV142, 58, 128
p2349
V7656 C
p2350
sV165, 185, 156
p2351
V2404 C
p2352
sV224, 0, 77
p2353
V1925 C
p2354
sV84, 88, 90
p2355
V425 C
p2356
sV101, 141, 27
p2357
V370 C
p2358
sV249, 225, 125
p2359
V2002 C
p2360
sV141, 137, 165
p2361
V5285 C
p2362
sV132, 11, 85
p2363
V235 C
p2364
sV192, 223, 22
p2365
V2297 C
p2366
sV89, 73, 167
p2367
V2103 C
p2368
sV208, 209, 171
p2369
V5807 C
p2370
sV229, 206, 219
p2371
V677 C
p2372
sV30, 26, 52
p2373
V5255 C
p2374
sV245, 225, 164
p2375
V7401 C
p2376
sV0, 83, 76
p2377
V330 C
p2378
sV0, 134, 85
p2379
V2245 C
p2380
sV117, 102, 160
p2381
V7676 C
p2382
sV166, 187, 200
p2383
V5435 C
p2384
sV100, 118, 146
p2385
V2138 C
p2386
sV191, 77, 165
p2387
V2353 C
p2388
sV164, 18, 63
p2389
V7426 C
p2390
sV0, 61, 76
p2391
V548 C
p2392
sV138, 27, 97
p2393
V7649 C
p2394
sV104, 210, 223
p2395
V3105 C
p2396
sV0, 119, 73
p2397
V3415 C
p2398
sV158, 166, 180
p2399
V2162 C
p2400
sV150, 0, 81
p2401
V676 C
p2402
sV120, 213, 225
p2403
V2225 C
p2404
sV0, 137, 123
p2405
V2403 C
p2406
sV109, 79, 71
p2407
V7518 C
p2408
sV64, 58, 96
p2409
V5265 C
p2410
sV0, 138, 216
p2411
V2382 C
p2412
sV241, 128, 112
p2413
V2344 C
p2414
sV191, 184, 175
p2415
VWarm Gray 3 C
p2416
sV0, 183, 189
p2417
V2397 C
p2418
sV153, 85, 43
p2419
V7516 C
p2420
sV196, 98, 45
p2421
V7583 C
p2422
sV176, 124, 131
p2423
V5005 C
p2424
sV151, 57, 97
p2425
V2048 C
p2426
sV224, 126, 60
p2427
V7577 C
p2428
sV176, 0, 142
p2429
V2405 C
p2430
sV0, 103, 160
p2431
V641 C
p2432
sV0, 105, 128
p2433
V2224 C
p2434
sV119, 193, 154
p2435
V2247 C
p2436
sV182, 108, 109
p2437
V2341 C
p2438
sV215, 210, 203
p2439
VWarm Gray 1 C
p2440
sV255, 181, 73
p2441
V1365 C
p2442
sV224, 78, 57
p2443
V7417 C
p2444
sV137, 122, 39
p2445
V105 C
p2446
sV0, 38, 119
p2447
V2147 C
p2448
sV255, 197, 110
p2449
V1355 C
p2450
sV228, 93, 191
p2451
V238 C
p2452
sV24, 48, 40
p2453
V5535 C
p2454
sV0, 97, 160
p2455
V2384 C
p2456
sV183, 205, 194
p2457
V622 C
p2458
sV187, 199, 214
p2459
V537 C
p2460
sV76, 65, 132
p2461
V7672 C
p2462
sV224, 162, 212
p2463
V2064 C
p2464
sV167, 198, 237
p2465
V2717 C
p2466
sV239, 209, 159
p2467
V155 C
p2468
sV231, 60, 62
p2469
V2034 C
p2470
sV0, 146, 203
p2471
V2393 C
p2472
sV111, 121, 189
p2473
V2115 C
p2474
sV200, 16, 46
p2475
V186 C
p2476
sV178, 163, 132
p2477
V2324 C
p2478
sV23, 28, 143
p2479
V2746 C
p2480
sV110, 124, 160
p2481
V7667 C
p2482
sV122, 154, 1
p2483
V377 C
p2484
sV183, 201, 211
p2485
V5445 C
p2486
sV103, 66, 48
p2487
V7603 C
p2488
sV74, 119, 41
p2489
V364 C
p2490
sV46, 77, 88
p2491
V2216 C
p2492
sV99, 177, 188
p2493
V7709 C
p2494
sV93, 71, 119
p2495
V7447 C
p2496
sV180, 181, 223
p2497
V270 C
p2498
sV126, 147, 167
p2499
V2164 C
p2500
sV116, 116, 193
p2501
V272 C
p2502
sV62, 93, 88
p2503
V5477 C
p2504
sV131, 57, 33
p2505
V1685 C
p2506
sV12, 35, 64
p2507
V289 C
p2508
sV7, 29, 73
p2509
V2768 C
p2510
sV0, 95, 97
p2511
V323 C
p2512
sV95, 155, 198
p2513
V2170 C
p2514
sV120, 78, 144
p2515
V2082 C
p2516
sV32, 92, 64
p2517
V554 C
p2518
sV112, 112, 141
p2519
V2361 C
p2520
sV242, 212, 215
p2521
V698 C
p2522
sV213, 203, 159
p2523
V4545 C
p2524
sV173, 223, 179
p2525
V2254 C
p2526
sV0, 81, 81
p2527
V7722 C
p2528
sV134, 109, 75
p2529
V873 C
p2530
sV94, 138, 180
p2531
V646 C
p2532
sV197, 183, 131
p2533
V4525 C
p2534
sV230, 166, 93
p2535
V7411 C
p2536
sV107, 202, 186
p2537
V570 C
p2538
sV138, 21, 56
p2539
V1955 C
p2540
sV4, 28, 44
p2541
V296 C
p2542
sV79, 159, 166
p2543
V2234 C
p2544
sV0, 87, 184
p2545
V2935 C
p2546
sV45, 204, 211
p2547
V319 C
p2548
sV209, 65, 36
p2549
V7597 C
p2550
sV222, 205, 99
p2551
V459 C
p2552
sV154, 118, 17
p2553
V126 C
p2554
sV0, 191, 179
p2555
V3262 C
p2556
sV54, 87, 59
p2557
V7735 C
p2558
sV198, 169, 146
p2559
V480 C
p2560
sV0, 168, 45
p2561
V2422 C
p2562
sV110, 206, 178
p2563
V338 C
p2564
sV111, 81, 55
p2565
V2321 C
p2566
sV164, 219, 232
p2567
V635 C
p2568
sV0, 115, 103
p2569
V328 C
p2570
sV42, 91, 108
p2571
V2181 C
p2572
sV143, 126, 53
p2573
V7768 C
p2574
sV167, 164, 224
p2575
V2705 C
p2576
sV181, 92, 128
p2577
V7432 C
p2578
sV45, 41, 38
p2579
VBlack C
p2580
sV111, 155, 164
p2581
V2211 C
p2582
sV40, 87, 128
p2583
V2161 C
p2584
sV252, 174, 187
p2585
VRed 0331 C
p2586
sV51, 0, 114
p2587
V2685 C
p2588
sV0, 150, 129
p2589
V3285 C
p2590
sV183, 221, 121
p2591
V366 C
p2592
sV51, 5, 141
p2593
V2371 C
p2594
sV1, 33, 105
p2595
V280 C
p2596
sV160, 139, 203
p2597
V2086 C
p2598
sV72, 159, 223
p2599
V2171 C
p2600
sV80, 158, 47
p2601
V362 C
p2602
sV153, 133, 66
p2603
V4505 C
p2604
sV173, 132, 31
p2605
V1255 C
p2606
sV0, 87, 63
p2607
V7484 C
p2608
sV197, 169, 0
p2609
V103 C
p2610
sV110, 128, 169
p2611
V2137 C
p2612
sV208, 208, 206
p2613
VCool Gray 2 C
p2614
sV0, 134, 214
p2615
V2194 C
p2616
sV227, 82, 5
p2617
V166 C
p2618
sV120, 214, 75
p2619
V7488 C
p2620
sV237, 224, 75
p2621
V603 C
p2622
sV0, 90, 112
p2623
V7470 C
p2624
sV166, 25, 46
p2625
V187 C
p2626
sV167, 99, 137
p2627
V688 C
p2628
sV209, 224, 215
p2629
V621 C
p2630
sV74, 48, 65
p2631
V5185 C
p2632
sV92, 126, 81
p2633
V2265 C
p2634
sV186, 12, 47
p2635
V200 C
p2636
sV151, 215, 0
p2637
V375 C
p2638
sV156, 175, 136
p2639
V7494 C
p2640
sV168, 85, 102
p2641
V2343 C
p2642
sV115, 102, 53
p2643
V7756 C
p2644
sV134, 210, 149
p2645
V2255 C
p2646
sV120, 190, 32
p2647
V368 C
p2648
sV56, 94, 157
p2649
V7684 C
p2650
sV173, 202, 184
p2651
V559 C
p2652
sV227, 233, 53
p2653
V387 C
p2654
sV255, 199, 44
p2655
V123 C
p2656
sV208, 90, 87
p2657
V2032 C
p2658
sV0, 78, 66
p2659
V3305 C
p2660
sV160, 171, 77
p2661
V2304 C
p2662
sV239, 96, 163
p2663
V2038 C
p2664
sV140, 172, 137
p2665
V2262 C
p2666
sV0, 130, 100
p2667
V3288 C
p2668
sV234, 118, 0
p2669
V716 C
p2670
sV109, 32, 119
p2671
V259 C
p2672
sV139, 91, 41
p2673
V464 C
p2674
sV212, 235, 142
p2675
V372 C
p2676
sV158, 101, 46
p2677
V730 C
p2678
sV233, 225, 134
p2679
V608 C
p2680
sV122, 104, 85
p2681
V7531 C
p2682
sV0, 35, 156
p2683
VDark Blue C
p2684
sV113, 176, 180
p2685
V2232 C
p2686
sV234, 170, 0
p2687
V124 C
p2688
sV226, 232, 104
p2689
V379 C
p2690
sV230, 134, 153
p2691
V701 C
p2692
sV202, 154, 142
p2693
V7612 C
p2694
sV130, 70, 175
p2695
V2587 C
p2696
sV166, 153, 193
p2697
V2093 C
p2698
sV0, 193, 213
p2699
V3115 C
p2700
sV200, 0, 161
p2701
V2395 C
p2702
sV160, 116, 0
p2703
V132 C
p2704
sV131, 120, 111
p2705
VWarm Gray 9 C
p2706
sV129, 49, 47
p2707
V181 C
p2708
sV100, 204, 201
p2709
V325 C
p2710
sV127, 160, 172
p2711
V2177 C
p2712
sV110, 98, 89
p2713
VWarm Gray 11 C
p2714
sV72, 54, 152
p2715
V2104 C
p2716
sV180, 106, 85
p2717
V7522 C
p2718
sV44, 82, 52
p2719
V350 C
p2720
sV0, 156, 189
p2721
V7703 C
p2722
sV164, 82, 72
p2723
V7524 C
p2724
sV0, 105, 117
p2725
V2238 C
p2726
sV181, 37, 85
p2727
V7425 C
p2728
sV195, 220, 147
p2729
V2275 C
p2730
sV168, 153, 104
p2731
V7503 C
p2732
sV36, 76, 90
p2733
V7477 C
p2734
sV214, 207, 141
p2735
V615 C
p2736
sV239, 149, 207
p2737
V223 C
p2738
sV183, 49, 44
p2739
V7620 C
p2740
sV255, 103, 31
p2741
V165 C
p2742
sV164, 52, 58
p2743
V1807 C
p2744
sV0, 151, 169
p2745
V7711 C
p2746
sV230, 190, 221
p2747
V516 C
p2748
sV165, 69, 112
p2749
V2047 C
p2750
sV95, 33, 103
p2751
V2623 C
p2752
sV150, 56, 33
p2753
V174 C
p2754
sV225, 82, 61
p2755
V7625 C
p2756
sV255, 181, 0
p2757
V7549 C
p2758
sV185, 220, 210
p2759
V566 C
p2760
sV241, 235, 156
p2761
V600 C
p2762
sV177, 162, 202
p2763
V2099 C
p2764
sV0, 179, 152
p2765
V3275 C
p2766
sV65, 143, 222
p2767
V279 C
p2768
sV255, 198, 0
p2769
V7548 C
p2770
sV147, 39, 44
p2771
V7622 C
p2772
sV223, 209, 167
p2773
V7500 C
p2774
sV0, 73, 134
p2775
V2186 C
p2776
sV188, 201, 197
p2777
V5527 C
p2778
sV110, 43, 98
p2779
V7657 C
p2780
sV19, 41, 75
p2781
V2767 C
p2782
sV91, 52, 39
p2783
V4695 C
p2784
sV211, 188, 141
p2785
V467 C
p2786
sV148, 165, 150
p2787
V5635 C
p2788
sV165, 127, 178
p2789
V521 C
p2790
sV163, 199, 210
p2791
V551 C
p2792
sV112, 32, 130
p2793
V2603 C
p2794
sV255, 158, 27
p2795
V1375 C
p2796
sV215, 136, 37
p2797
V7569 C
p2798
sV29, 130, 150
p2799
V2222 C
p2800
sV255, 174, 98
p2801
V1485 C
p2802
sV255, 190, 159
p2803
V162 C
p2804
sV101, 102, 92
p2805
V417 C
p2806
sV47, 42, 149
p2807
V2370 C
p2808
sV0, 115, 119
p2809
V322 C
p2810
sV158, 151, 142
p2811
VBlack 0961 C
p2812
sV162, 165, 105
p2813
V5777 C
p2814
sV139, 190, 232
p2815
V2141 C
p2816
sV248, 173, 109
p2817
V2017 C
p2818
sV207, 181, 0
p2819
V606 C
p2820
sV123, 77, 53
p2821
V7588 C
p2822
sV196, 176, 0
p2823
V612 C
p2824
sV74, 65, 42
p2825
V448 C
p2826
sV206, 184, 136
p2827
V7502 C
p2828
sV73, 123, 85
p2829
V2408 C
p2830
sV0, 72, 81
p2831
V316 C
p2832
sV246, 190, 0
p2833
V7408 C
p2834
sV230, 56, 136
p2835
V2039 C
p2836
sV167, 123, 202
p2837
V2577 C
p2838
sV255, 128, 139
p2839
V177 C
p2840
sV103, 71, 54
p2841
V7582 C
p2842
sV217, 192, 169
p2843
V2310 C
p2844
sV164, 210, 51
p2845
V2299 C
p2846
sV208, 222, 187
p2847
V7485 C
p2848
sV66, 85, 99
p2849
V7545 C
p2850
sV244, 195, 204
p2851
V699 C
p2852
sV167, 43, 42
p2853
V7627 C
p2854
sV211, 192, 205
p2855
V5165 C
p2856
sV63, 68, 68
p2857
V446 C
p2858
sV159, 174, 229
p2859
V2716 C
p2860
sV83, 84, 134
p2861
V7673 C
p2862
sV204, 174, 208
p2863
V7437 C
p2864
sV226, 119, 205
p2865
V2375 C
p2866
sV220, 169, 191
p2867
V7430 C
p2868
sV96, 93, 117
p2869
V2363 C
p2870
sV45, 200, 77
p2871
V2270 C
p2872
sV88, 167, 175
p2873
V2233 C
p2874
sV146, 193, 233
p2875
V283 C
p2876
sV111, 162, 135
p2877
V556 C
p2878
sV156, 132, 18
p2879
V112 C
p2880
sV236, 199, 205
p2881
V196 C
p2882
sV134, 103, 97
p2883
V7615 C
p2884
sV241, 198, 167
p2885
V474 C
p2886
sV85, 149, 27
p2887
V2277 C
p2888
sV183, 154, 129
p2889
V2312 C
p2890
sV73, 134, 160
p2891
V2209 C
p2892
sV147, 201, 14
p2893
V2292 C
p2894
sV232, 156, 174
p2895
V197 C
p2896
sV86, 194, 113
p2897
V2256 C
p2898
sV93, 100, 57
p2899
V7762 C
p2900
sV75, 61, 42
p2901
V7554 C
p2902
sV225, 213, 85
p2903
V610 C
p2904
sV24, 51, 47
p2905
V5467 C
p2906
sV222, 168, 221
p2907
V2065 C
p2908
sV132, 189, 0
p2909
V376 C
p2910
sV215, 185, 228
p2911
V530 C
p2912
sV0, 58, 64
p2913
V2217 C
p2914
sV125, 85, 199
p2915
V2665 C
p2916
sV110, 63, 163
p2917
V2077 C
p2918
sV223, 200, 231
p2919
V531 C
p2920
sV123, 121, 142
p2921
V2360 C
p2922
sV189, 214, 230
p2923
V544 C
p2924
sV98, 59, 42
p2925
V477 C
p2926
sV226, 69, 133
p2927
V7424 C
p2928
sV155, 125, 212
p2929
V2087 C
p2930
sV150, 140, 131
p2931
VWarm Gray 7 C
p2932
sV249, 226, 103
p2933
V2003 C
p2934
sV121, 101, 178
p2935
V2095 C
p2936
sV92, 61, 49
p2937
V7596 C
p2938
sV187, 197, 146
p2939
V7493 C
p2940
sV227, 200, 216
p2941
V678 C
p2942
sV108, 100, 99
p2943
V2334 C
p2944
sV142, 140, 19
p2945
V582 C
p2946
sV214, 201, 202
p2947
V7632 C
p2948
sV236, 195, 178
p2949
V489 C
p2950
sV190, 77, 0
p2951
V718 C
p2952
sV7, 43, 49
p2953
V546 C
p2954
sV98, 181, 229
p2955
V2915 C
p2956
sV255, 184, 28
p2957
V1235 C
p2958
sV79, 44, 29
p2959
V4625 C
p2960
sV214, 164, 97
p2961
V7509 C
p2962
sV116, 149, 108
p2963
V2263 C
p2964
sV71, 151, 168
p2965
V2220 C
p2966
sV225, 184, 127
p2967
V7508 C
p2968
sV143, 50, 55
p2969
V492 C
p2970
sV175, 205, 215
p2971
V2204 C
p2972
sV72, 169, 197
p2973
V7702 C
p2974
sV198, 53, 39
p2975
V7626 C
p2976
sV0, 118, 165
p2977
V2185 C
p2978
sV74, 119, 60
p2979
V7742 C
p2980
sV108, 29, 69
p2981
V222 C
p2982
sV0, 118, 168
p2983
V7690 C
p2984
sV144, 95, 123
p2985
V2055 C
p2986
sV228, 169, 187
p2987
V508 C
p2988
sV98, 18, 68
p2989
V2357 C
p2990
sV93, 55, 84
p2991
V7659 C
p2992
sV255, 152, 0
p2993
V2013 C
p2994
sV0, 26, 114
p2995
V2747 C
p2996
sV56, 46, 44
p2997
V440 C
p2998
sV0, 26, 112
p2999
V662 C
p3000
sV107, 141, 115
p3001
V2407 C
p3002
sV124, 37, 41
p3003
V1815 C
p3004
sV181, 157, 187
p3005
V2078 C
p3006
sV157, 72, 21
p3007
V2021 C
p3008
sV0, 124, 145
p3009
V2231 C
p3010
sV40, 147, 157
p3011
V2235 C
p3012
sV190, 198, 196
p3013
V441 C
p3014
sV99, 89, 57
p3015
V7770 C
p3016
sV40, 30, 120
p3017
V2372 C
p3018
sV77, 73, 190
p3019
V2368 C
p3020
sV203, 196, 188
p3021
VWarm Gray 2 C
p3022
sV102, 56, 182
p3023
V2090 C
p3024
sV118, 136, 29
p3025
V7496 C
p3026
sV0, 85, 135
p3027
V7692 C
p3028
sV172, 159, 60
p3029
V618 C
p3030
sV198, 0, 126
p3031
V233 C
p3032
sV78, 73, 52
p3033
V7771 C
p3034
sV111, 44, 63
p3035
V505 C
p3036
sV148, 135, 148
p3037
V7653 C
p3038
sV214, 191, 221
p3039
V256 C
p3040
sV0, 94, 184
p3041
V300 C
p3042
sV0, 176, 185
p3043
V7466 C
p3044
sV167, 172, 162
p3045
V7537 C
p3046
sV59, 63, 182
p3047
V2369 C
p3048
sV249, 159, 201
p3049
V210 C
p3050
sV184, 132, 203
p3051
V2573 C
p3052
sV138, 123, 25
p3053
V620 C
p3054
sV0, 191, 111
p3055
V7480 C
p3056
sV148, 96, 55
p3057
V4635 C
p3058
sV191, 148, 116
p3059
V4655 C
p3060
sV68, 73, 156
p3061
V2117 C
p3062
sV0, 135, 85
p3063
V7725 C
p3064
sV0, 153, 178
p3065
V2396 C
p3066
sV97, 145, 180
p3067
V2148 C
p3068
sV113, 70, 35
p3069
V2320 C
p3070
sV228, 190, 195
p3071
V692 C
p3072
sV255, 130, 0
p3073
V151 C
p3074
sV235, 228, 154
p3075
V607 C
p3076
sV63, 108, 125
p3077
V2180 C
p3078
sV105, 97, 88
p3079
V405 C
p3080
sV22, 104, 134
p3081
V2392 C
p3082
sV171, 152, 157
p3083
V436 C
p3084
sV208, 211, 212
p3085
V427 C
p3086
sV220, 68, 5
p3087
V1665 C
p3088
sV164, 188, 194
p3089
V7542 C
p3090
sV193, 160, 218
p3091
V2567 C
p3092
sV104, 52, 49
p3093
V7610 C
p3094
sV217, 217, 214
p3095
VCool Gray 1 C
p3096
sV111, 38, 61
p3097
V209 C
p3098
sV206, 0, 86
p3099
VStrong Red C
p3100
sV226, 188, 203
p3101
V7429 C
p3102
sV219, 62, 177
p3103
V239 C
p3104
sV141, 110, 151
p3105
V7661 C
p3106
sV248, 163, 188
p3107
V189 C
p3108
sV112, 133, 115
p3109
V5625 C
p3110
sV51, 112, 121
p3111
V2213 C
p3112
sV219, 134, 78
p3113
V7576 C
p3114
sV184, 172, 214
p3115
V2092 C
p3116
sV206, 0, 88
p3117
VRubine Red C
p3118
sV228, 213, 211
p3119
V7604 C
p3120
sV202, 54, 4
p3121
V2349 C
p3122
sV245, 218, 223
p3123
V705 C
p3124
sV106, 42, 91
p3125
V7651 C
p3126
sV175, 109, 4
p3127
V139 C
p3128
sV199, 201, 199
p3129
V420 C
p3130
sV1, 66, 106
p3131
V7694 C
p3132
sV215, 200, 38
p3133
V611 C
p3134
sV255, 182, 115
p3135
V2016 C
p3136
sV0, 119, 200
p3137
V3005 C
p3138
sV171, 35, 40
p3139
V7621 C
p3140
sV133, 176, 154
p3141
V557 C
p3142
sV221, 194, 207
p3143
V2051 C
p3144
sV127, 53, 178
p3145
V2084 C
p3146
sV209, 204, 189
p3147
V7534 C
p3148
sV200, 107, 168
p3149
V2060 C
p3150
sV104, 92, 32
p3151
V3995 C
p3152
sV225, 0, 152
p3153
VRhodamine Red C
p3154
sV191, 187, 152
p3155
V453 C
p3156
sV236, 186, 168
p3157
V488 C
p3158
sV80, 7, 120
p3159
V2607 C
p3160
sV181, 128, 209
p3161
V528 C
p3162
sV155, 225, 152
p3163
V2267 C
p3164
sV106, 55, 53
p3165
V498 C
p3166
sV37, 14, 98
p3167
V2755 C
p3168
sV0, 142, 170
p3169
V3135 C
p3170
sV255, 179, 171
p3171
V169 C
p3172
sV7, 124, 171
p3173
V2390 C
p3174
sV191, 206, 194
p3175
V5595 C
p3176
sV239, 150, 0
p3177
V2012 C
p3178
sV220, 88, 42
p3179
V7579 C
p3180
sV0, 112, 150
p3181
V7705 C
p3182
sV117, 148, 179
p3183
V2157 C
p3184
sV116, 170, 80
p3185
V7489 C
p3186
sV155, 39, 67
p3187
V194 C
p3188
sV192, 187, 135
p3189
V5855 C
p3190
sV174, 138, 121
p3191
V4725 C
p3192
sV175, 169, 110
p3193
V5845 C
p3194
sV200, 130, 66
p3195
V722 C
p3196
sV0, 150, 108
p3197
V7724 C
p3198
sV143, 26, 149
p3199
V2070 C
p3200
sV144, 99, 205
p3201
V265 C
p3202
sV113, 92, 42
p3203
V147 C
p3204
sV28, 31, 42
p3205
V532 C
p3206
sV165, 24, 144
p3207
V248 C
p3208
sV155, 90, 26
p3209
V154 C
p3210
sV103, 30, 117
p3211
V2613 C
p3212
sV87, 45, 45
p3213
V7631 C
p3214
sV179, 185, 149
p3215
V5793 C
p3216
sV73, 197, 177
p3217
V3258 C
p3218
sV148, 154, 144
p3219
V7538 C
p3220
sV124, 58, 45
p3221
V7594 C
p3222
sV0, 147, 178
p3223
V632 C
p3224
sV200, 216, 235
p3225
V657 C
p3226
sV58, 93, 174
p3227
V7455 C
p3228
sV184, 201, 225
p3229
V2127 C
p3230
sV162, 142, 42
p3231
V456 C
p3232
sV101, 29, 50
p3233
V7421 C
p3234
sV0, 163, 225
p3235
V2191 C
p3236
sV246, 82, 117
p3237
V184 C
p3238
sV75, 79, 84
p3239
V7540 C
p3240
sV53, 31, 101
p3241
V2112 C
p3242
sV50, 98, 149
p3243
V653 C
p3244
sV227, 28, 121
p3245
V213 C
p3246
sV0, 61, 165
p3247
V293 C
p3248
sV63, 42, 86
p3249
V669 C
p3250
sV29, 66, 138
p3251
V7687 C
p3252
sV0, 183, 79
p3253
V7481 C
p3254
sV40, 0, 113
p3255
V2745 C
p3256
sV0, 154, 68
p3257
V347 C
p3258
sV76, 18, 161
p3259
V2091 C
p3260
sV183, 139, 32
p3261
V7556 C
p3262
sV187, 22, 163
p3263
V247 C
p3264
sV0, 133, 125
p3265
V7717 C
p3266
sV239, 190, 125
p3267
V156 C
p3268
sV0, 173, 111
p3269
V2251 C
p3270
sV188, 138, 126
p3271
V7613 C
p3272
sV88, 45, 64
p3273
V7644 C
p3274
sV88, 61, 62
p3275
V7617 C
p3276
sV0, 195, 137
p3277
V3395 C
p3278
sV198, 196, 210
p3279
V5305 C
p3280
sV121, 110, 101
p3281
VWarm Gray 10 C
p3282
sV217, 200, 158
p3283
V7501 C
p3284
sV235, 190, 203
p3285
V510 C
p3286
sV233, 60, 172
p3287
V232 C
p3288
sV116, 113, 54
p3289
V7761 C
p3290
sV220, 191, 166
p3291
V4675 C
p3292
sV229, 225, 230
p3293
V663 C
p3294
sV101, 102, 53
p3295
V7750 C
p3296
sV0, 56, 101
p3297
V2955 C
p3298
sV4, 106, 56
p3299
V349 C
p3300
sV238, 218, 234
p3301
V7436 C
p3302
sV161, 90, 149
p3303
V7655 C
p3304
sV176, 170, 126
p3305
V452 C
p3306
sV129, 96, 64
p3307
V7505 C
p3308
sV78, 91, 49
p3309
V574 C
p3310
sV0, 173, 80
p3311
V2257 C
p3312
sV0, 134, 117
p3313
V327 C
p3314
sV0, 174, 199
p3315
V3125 C
p3316
sV27, 54, 93
p3317
V534 C
p3318
sV198, 161, 207
p3319
V257 C
p3320
sV169, 196, 127
p3321
V577 C
p3322
sV187, 179, 35
p3323
V7765 C
p3324
sV75, 130, 168
p3325
V2149 C
p3326
sV243, 208, 62
p3327
V129 C
p3328
sV6, 3, 141
p3329
V2738 C
p3330
sV167, 188, 214
p3331
V651 C
p3332
sV254, 221, 0
p3333
VYellow C
p3334
sV104, 71, 141
p3335
V7678 C
p3336
sV2, 114, 35
p3337
V2259 C
p3338
sV136, 107, 37
p3339
V1265 C
p3340
sV237, 139, 0
p3341
V144 C
p3342
sV0, 171, 132
p3343
VGreen C
p3344
sV148, 147, 0
p3345
V384 C
p3346
sV179, 105, 36
p3347
V723 C
p3348
sV0, 144, 218
p3349
V2193 C
p3350
sV255, 215, 0
p3351
VYellow 012 C
p3352
sV164, 90, 42
p3353
V470 C
p3354
sV33, 21, 81
p3355
V274 C
p3356
sV160, 153, 88
p3357
V5835 C
p3358
sV143, 106, 42
p3359
V7559 C
p3360
sV185, 71, 0
p3361
V1525 C
p3362
sV194, 225, 137
p3363
V365 C
p3364
sV128, 148, 221
p3365
V7452 C
p3366
sV137, 171, 227
p3367
V7451 C
p3368
sV193, 108, 24
p3369
V7414 C
p3370
sV0, 111, 68
p3371
V7727 C
p3372
sV221, 188, 176
p3373
V7611 C
p3374
sV179, 155, 0
p3375
V613 C
p3376
sV241, 230, 178
p3377
V7499 C
p3378
sV216, 215, 223
p3379
V5315 C
p3380
sV193, 160, 30
p3381
V7753 C
p3382
sV0, 48, 135
p3383
V287 C
p3384
sV96, 110, 178
p3385
V7456 C
p3386
sV86, 82, 148
p3387
V7670 C
p3388
sV122, 114, 86
p3389
V7497 C
p3390
sV240, 191, 155
p3391
V473 C
p3392
sV198, 54, 99
p3393
V7635 C
p3394
sV165, 0, 52
p3395
V207 C
p3396
sV154, 51, 36
p3397
V484 C
p3398
sV132, 117, 78
p3399
V871 C
p3400
sV251, 219, 101
p3401
V120 C
p3402
sV148, 183, 187
p3403
V5503 C
p3404
sV167, 189, 177
p3405
V5585 C
p3406
sV0, 104, 94
p3407
V329 C
p3408
sV185, 211, 220
p3409
V552 C
p3410
sV193, 103, 132
p3411
V7634 C
p3412
sV0, 70, 128
p3413
V2154 C
p3414
sV117, 59, 189
p3415
V266 C
p3416
sV9, 87, 195
p3417
V2132 C
p3418
sV219, 183, 187
p3419
V5025 C
p3420
sV172, 163, 154
p3421
VWarm Gray 5 C
p3422
sV0, 24, 113
p3423
V2748 C
p3424
sV92, 130, 165
p3425
V2158 C
p3426
sV92, 78, 99
p3427
V7666 C
p3428
sV255, 170, 77
p3429
V804 C
p3430
sV101, 48, 36
p3431
V483 C
p3432
sV142, 127, 174
p3433
V2094 C
p3434
sV126, 45, 64
p3435
V7638 C
p3436
sV234, 167, 148
p3437
V487 C
p3438
sV135, 103, 79
p3439
V875 C
p3440
sV0, 125, 186
p3441
V7461 C
p3442
sV0, 103, 127
p3443
V315 C
p3444
sV142, 221, 101
p3445
V7487 C
p3446
sV172, 132, 0
p3447
V118 C
p3448
sV155, 126, 164
p3449
V2079 C
p3450
sV0, 43, 73
p3451
V7463 C
p3452
sV132, 50, 155
p3453
V2593 C
p3454
sV82, 122, 138
p3455
V2179 C
p3456
sV162, 228, 184
p3457
V351 C
p3458
sV149, 108, 88
p3459
V4715 C
p3460
sV166, 99, 27
p3461
V7512 C
p3462
sV68, 136, 62
p3463
V7741 C
p3464
sV8, 31, 44
p3465
V5395 C
p3466
sV203, 96, 21
p3467
V159 C
p3468
sV224, 165, 38
p3469
V2007 C
p3470
sV152, 29, 151
p3471
V254 C
p3472
sV183, 176, 156
p3473
V7535 C
p3474
sV54, 90, 189
p3475
V2131 C
p3476
sV114, 36, 108
p3477
V255 C
p3478
sV236, 161, 84
p3479
V157 C
p3480
sV122, 65, 131
p3481
V7662 C
p3482
sV255, 198, 88
p3483
V135 C
p3484
sV226, 172, 215
p3485
V515 C
p3486
sV77, 105, 149
p3487
V2139 C
p3488
sV37, 114, 38
p3489
V2273 C
p3490
sV116, 210, 231
p3491
V2197 C
p3492
sV30, 34, 170
p3493
V2736 C
p3494
sV233, 162, 178
p3495
V494 C
p3496
sV244, 205, 212
p3497
V7422 C
p3498
sV0, 187, 49
p3499
V2271 C
p3500
sV0, 135, 174
p3501
V2203 C
p3502
sV200, 201, 199
p3503
VCool Gray 3 C
p3504
sV134, 31, 65
p3505
V208 C
p3506
sV85, 118, 209
p3507
V2130 C
p3508
sV126, 84, 117
p3509
V5135 C
p3510
sV141, 63, 43
p3511
V7600 C
p3512
sV66, 109, 169
p3513
V7683 C
p3514
sV107, 187, 174
p3515
V563 C
p3516
sV0, 97, 127
p3517
V7707 C
p3518
sV169, 67, 30
p3519
S'2406 C'
p3520
s.